target datalayout = "e-m:e-p270:32:32-p271:32:32-p272:64:64-i64:64-i128:128-f80:128-n8:16:32:64-S128"
target triple = "x86_64-pc-linux-gnu"

%"struct.std::__detail::_Hash_node_base" = type { ptr }
%"struct.std::__detail::_Prime_rehash_policy" = type { float, i64 }
%struct.FaceGroup = type { ptr, i32, %"class.std::vector.72", %"class.std::unordered_set", i32, float, float, double, i8, [7 x i8], %"struct.FaceGroup::Cache" }
%"class.std::vector.72" = type { %"struct.std::_Vector_base.73" }
%"struct.std::_Vector_base.73" = type { %"struct.std::_Vector_base<MeshFace *, std::allocator<MeshFace *>>::_Vector_impl" }
%"struct.std::_Vector_base<MeshFace *, std::allocator<MeshFace *>>::_Vector_impl" = type { %"struct.std::_Vector_base<MeshFace *, std::allocator<MeshFace *>>::_Vector_impl_data" }
%"struct.std::_Vector_base<MeshFace *, std::allocator<MeshFace *>>::_Vector_impl_data" = type { ptr, ptr, ptr }
%"class.std::unordered_set" = type { %"class.std::_Hashtable.77" }
%"class.std::_Hashtable.77" = type { ptr, i64, %"struct.std::__detail::_Hash_node_base", i64, %"struct.std::__detail::_Prime_rehash_policy", ptr }
%"struct.FaceGroup::Cache" = type <{ double, double, double, double, %"class.vcg::Point3", i8, [7 x i8] }>
%"class.vcg::Point3" = type { [3 x double] }

; Function Attrs: mustprogress nounwind uwtable
define linkonce_odr noundef double @_ZN3vcg4math4SqrtEd(double noundef %0) #4 comdat {
  %2 = alloca double, align 8
  store double %0, ptr %2, align 8
  %3 = load double, ptr %2, align 8
  %4 = call double @sqrt(double noundef %3) #3
  ret double %4
}

; Function Attrs: mustprogress nounwind uwtable
define linkonce_odr void @_ZN3vcg6Point3IdEC2Eddd(ptr noundef nonnull align 8 dereferenceable(24) %0, double noundef %1, double noundef %2, double noundef %3) unnamed_addr #4 comdat align 2 {
  %5 = alloca ptr, align 8
  %6 = alloca double, align 8
  %7 = alloca double, align 8
  %8 = alloca double, align 8
  store ptr %0, ptr %5, align 8
  store double %1, ptr %6, align 8
  store double %2, ptr %7, align 8
  store double %3, ptr %8, align 8
  %9 = load ptr, ptr %5, align 8
  %10 = load double, ptr %6, align 8
  %11 = getelementptr inbounds %"class.vcg::Point3", ptr %9, i32 0, i32 0
  %12 = getelementptr inbounds [3 x double], ptr %11, i64 0, i64 0
  store double %10, ptr %12, align 8
  %13 = load double, ptr %7, align 8
  %14 = getelementptr inbounds %"class.vcg::Point3", ptr %9, i32 0, i32 0
  %15 = getelementptr inbounds [3 x double], ptr %14, i64 0, i64 1
  store double %13, ptr %15, align 8
  %16 = load double, ptr %8, align 8
  %17 = getelementptr inbounds %"class.vcg::Point3", ptr %9, i32 0, i32 0
  %18 = getelementptr inbounds [3 x double], ptr %17, i64 0, i64 2
  store double %16, ptr %18, align 8
  ret void
}

; Function Attrs: mustprogress nounwind uwtable
define linkonce_odr noundef nonnull align 8 dereferenceable(24) ptr @_ZN3vcg6Point3IdE9NormalizeEv(ptr noundef nonnull align 8 dereferenceable(24) %0) #4 comdat align 2 {
  %2 = alloca ptr, align 8
  %3 = alloca double, align 8
  store ptr %0, ptr %2, align 8
  %4 = load ptr, ptr %2, align 8
  %5 = getelementptr inbounds %"class.vcg::Point3", ptr %4, i32 0, i32 0
  %6 = getelementptr inbounds [3 x double], ptr %5, i64 0, i64 0
  %7 = load double, ptr %6, align 8
  %8 = getelementptr inbounds %"class.vcg::Point3", ptr %4, i32 0, i32 0
  %9 = getelementptr inbounds [3 x double], ptr %8, i64 0, i64 0
  %10 = load double, ptr %9, align 8
  %11 = getelementptr inbounds %"class.vcg::Point3", ptr %4, i32 0, i32 0
  %12 = getelementptr inbounds [3 x double], ptr %11, i64 0, i64 1
  %13 = load double, ptr %12, align 8
  %14 = getelementptr inbounds %"class.vcg::Point3", ptr %4, i32 0, i32 0
  %15 = getelementptr inbounds [3 x double], ptr %14, i64 0, i64 1
  %16 = load double, ptr %15, align 8
  %17 = fmul double %13, %16
  %18 = call double @llvm.fmuladd.f64(double %7, double %10, double %17)
  %19 = getelementptr inbounds %"class.vcg::Point3", ptr %4, i32 0, i32 0
  %20 = getelementptr inbounds [3 x double], ptr %19, i64 0, i64 2
  %21 = load double, ptr %20, align 8
  %22 = getelementptr inbounds %"class.vcg::Point3", ptr %4, i32 0, i32 0
  %23 = getelementptr inbounds [3 x double], ptr %22, i64 0, i64 2
  %24 = load double, ptr %23, align 8
  %25 = call double @llvm.fmuladd.f64(double %21, double %24, double %18)
  %26 = call noundef double @_ZN3vcg4math4SqrtEd(double noundef %25)
  store double %26, ptr %3, align 8
  %27 = load double, ptr %3, align 8
  %28 = fcmp ogt double %27, 0.000000e+00
  br i1 %28, label %29, label %45

29:                                               ; preds = %1
  %30 = load double, ptr %3, align 8
  %31 = getelementptr inbounds %"class.vcg::Point3", ptr %4, i32 0, i32 0
  %32 = getelementptr inbounds [3 x double], ptr %31, i64 0, i64 0
  %33 = load double, ptr %32, align 8
  %34 = fdiv double %33, %30
  store double %34, ptr %32, align 8
  %35 = load double, ptr %3, align 8
  %36 = getelementptr inbounds %"class.vcg::Point3", ptr %4, i32 0, i32 0
  %37 = getelementptr inbounds [3 x double], ptr %36, i64 0, i64 1
  %38 = load double, ptr %37, align 8
  %39 = fdiv double %38, %35
  store double %39, ptr %37, align 8
  %40 = load double, ptr %3, align 8
  %41 = getelementptr inbounds %"class.vcg::Point3", ptr %4, i32 0, i32 0
  %42 = getelementptr inbounds [3 x double], ptr %41, i64 0, i64 2
  %43 = load double, ptr %42, align 8
  %44 = fdiv double %43, %40
  store double %44, ptr %42, align 8
  br label %45

45:                                               ; preds = %29, %1
  ret ptr %4
}

; Function Attrs: mustprogress uwtable
define linkonce_odr void @_ZNK3vcg6Point3IdEdvEd(ptr dead_on_unwind noalias writable sret(%"class.vcg::Point3") align 8 %0, ptr noundef nonnull align 8 dereferenceable(24) %1, double noundef %2) #5 comdat align 2 {
  %4 = alloca ptr, align 8
  %5 = alloca double, align 8
  store ptr %1, ptr %4, align 8
  store double %2, ptr %5, align 8
  %6 = load ptr, ptr %4, align 8
  %7 = getelementptr inbounds %"class.vcg::Point3", ptr %6, i32 0, i32 0
  %8 = getelementptr inbounds [3 x double], ptr %7, i64 0, i64 0
  %9 = load double, ptr %8, align 8
  %10 = load double, ptr %5, align 8
  %11 = fdiv double %9, %10
  %12 = getelementptr inbounds %"class.vcg::Point3", ptr %6, i32 0, i32 0
  %13 = getelementptr inbounds [3 x double], ptr %12, i64 0, i64 1
  %14 = load double, ptr %13, align 8
  %15 = load double, ptr %5, align 8
  %16 = fdiv double %14, %15
  %17 = getelementptr inbounds %"class.vcg::Point3", ptr %6, i32 0, i32 0
  %18 = getelementptr inbounds [3 x double], ptr %17, i64 0, i64 2
  %19 = load double, ptr %18, align 8
  %20 = load double, ptr %5, align 8
  %21 = fdiv double %19, %20
  call void @_ZN3vcg6Point3IdEC2Eddd(ptr noundef nonnull align 8 dereferenceable(24) %0, double noundef %11, double noundef %16, double noundef %21)
  ret void
}

; Function Attrs: mustprogress uwtable
define void @_ZNK9FaceGroup13AverageNormalEv(ptr dead_on_unwind noalias writable sret(%"class.vcg::Point3") align 8 %0, ptr noundef nonnull align 8 dereferenceable(192) %1) #5 align 2 {
  %3 = alloca ptr, align 8
  %4 = alloca %"class.vcg::Point3", align 8
  store ptr %1, ptr %3, align 8
  %5 = load ptr, ptr %3, align 8
  %6 = getelementptr inbounds %struct.FaceGroup, ptr %5, i32 0, i32 8
  %7 = load i8, ptr %6, align 8
  %8 = trunc i8 %7 to i1
  br i1 %8, label %9, label %10

9:                                                ; preds = %2
  call void @_ZNK9FaceGroup11UpdateCacheEv(ptr noundef nonnull align 8 dereferenceable(192) %5)
  br label %10

10:                                               ; preds = %9, %2
  %11 = getelementptr inbounds %struct.FaceGroup, ptr %5, i32 0, i32 10
  %12 = getelementptr inbounds %"struct.FaceGroup::Cache", ptr %11, i32 0, i32 4
  %13 = getelementptr inbounds %struct.FaceGroup, ptr %5, i32 0, i32 10
  %14 = getelementptr inbounds %"struct.FaceGroup::Cache", ptr %13, i32 0, i32 1
  %15 = load double, ptr %14, align 8
  %16 = fmul double 2.000000e+00, %15
  call void @_ZNK3vcg6Point3IdEdvEd(ptr dead_on_unwind writable sret(%"class.vcg::Point3") align 8 %4, ptr noundef nonnull align 8 dereferenceable(24) %12, double noundef %16)
  %17 = call noundef nonnull align 8 dereferenceable(24) ptr @_ZN3vcg6Point3IdE9NormalizeEv(ptr noundef nonnull align 8 dereferenceable(24) %4)
  call void @llvm.memcpy.p0.p0.i64(ptr align 8 %0, ptr align 8 %17, i64 24, i1 false)
  ret void
}