; Function Attrs: mustprogress nofree norecurse nosync nounwind memory(read, argmem: readwrite, inaccessiblemem: none) uwtable
define void @_ZNK9FaceGroup13AverageNormalEv(ptr dead_on_unwind noalias nocapture writable writeonly sret(%"class.vcg::Point3") align 8 %0, ptr nocapture noundef nonnull align 8 dereferenceable(192) %1) local_unnamed_addr #15 align 2 {
  %3 = getelementptr inbounds i8, ptr %1, i64 120
  %4 = load i8, ptr %3, align 8
  %5 = and i8 %4, 1
  %.not = icmp eq i8 %5, 0
  br i1 %.not, label %_ZN3vcg6Point3IdE9NormalizeEv.exit, label %6

6:                                                ; preds = %2
  tail call void @_ZNK9FaceGroup11UpdateCacheEv(ptr noundef nonnull align 8 dereferenceable(192) %1)
  br label %_ZN3vcg6Point3IdE9NormalizeEv.exit

_ZN3vcg6Point3IdE9NormalizeEv.exit:               ; preds = %6, %2
  %7 = getelementptr inbounds i8, ptr %1, i64 160
  %8 = getelementptr inbounds i8, ptr %1, i64 136
  %9 = load double, ptr %8, align 8
  %10 = fmul double %9, 2.000000e+00
  %11 = getelementptr inbounds i8, ptr %1, i64 176
  %12 = load double, ptr %11, align 8, !noalias !56
  %13 = fdiv double %12, %10
  %14 = load <2 x double>, ptr %7, align 8, !noalias !56
  %15 = insertelement <2 x double> poison, double %10, i64 0
  %16 = shufflevector <2 x double> %15, <2 x double> poison, <2 x i32> zeroinitializer
  %17 = fdiv <2 x double> %14, %16
  %18 = fmul <2 x double> %17, %17
  %19 = extractelement <2 x double> %18, i64 1
  %20 = extractelement <2 x double> %17, i64 0
  %21 = tail call double @llvm.fmuladd.f64(double %20, double %20, double %19)
  %22 = tail call double @llvm.fmuladd.f64(double %13, double %13, double %21)
  %sqrt.i = tail call double @llvm.sqrt.f64(double %22)
  %23 = fcmp ogt double %sqrt.i, 0.000000e+00
  %24 = insertelement <2 x double> poison, double %sqrt.i, i64 0
  %25 = shufflevector <2 x double> %24, <2 x double> poison, <2 x i32> zeroinitializer
  %26 = fdiv <2 x double> %17, %25
  %27 = fdiv double %13, %sqrt.i
  %.sroa.7.0 = select i1 %23, double %27, double %13
  %28 = insertelement <2 x i1> poison, i1 %23, i64 0
  %29 = shufflevector <2 x i1> %28, <2 x i1> poison, <2 x i32> zeroinitializer
  %30 = select <2 x i1> %29, <2 x double> %26, <2 x double> %17
  store <2 x double> %30, ptr %0, align 8
  %.sroa.7.0..sroa_idx = getelementptr inbounds i8, ptr %0, i64 16
  store double %.sroa.7.0, ptr %.sroa.7.0..sroa_idx, align 8
  ret void
}